target datalayout = "e-m:e-p270:32:32-p271:32:32-p272:64:64-i64:64-i128:128-f80:128-n8:16:32:64-S128"
target triple = "x86_64-unknown-linux-gnu"

%"class.std::shared_ptr" = type { %"class.std::__shared_ptr" }
%"class.std::__shared_ptr" = type { ptr, %"class.std::__shared_count" }
%"class.std::__shared_count" = type { ptr }
%"class.absl::lts_20230802::AnyInvocable" = type { %"class.absl::lts_20230802::internal_any_invocable::Impl" }
%"class.absl::lts_20230802::internal_any_invocable::Impl" = type { %"class.absl::lts_20230802::internal_any_invocable::CoreImpl" }
%"class.absl::lts_20230802::internal_any_invocable::CoreImpl" = type { %"union.absl::lts_20230802::internal_any_invocable::TypeErasedState", ptr, ptr }
%"union.absl::lts_20230802::internal_any_invocable::TypeErasedState" = type { %struct.anon }
%struct.anon = type { ptr, i64 }
%"class.grpc_event_engine::experimental::PollEventHandle" = type { %"class.grpc_event_engine::experimental::EventHandle", %"class.absl::lts_20230802::Mutex", %"struct.std::atomic.0", i32, i32, %"class.grpc_event_engine::experimental::PollPoller::HandlesList", %"class.grpc_event_engine::experimental::PollPoller::HandlesList", ptr, %"class.std::shared_ptr", i8, i8, i8, i8, i8, i32, %"class.absl::lts_20230802::Status", %"class.grpc_event_engine::experimental::AnyInvocableClosure", ptr, ptr, ptr, [8 x i8] }
%"class.grpc_event_engine::experimental::EventHandle" = type { ptr }
%"class.absl::lts_20230802::Mutex" = type { %"struct.std::atomic" }
%"struct.std::atomic" = type { %"struct.std::__atomic_base" }
%"struct.std::__atomic_base" = type { i64 }
%"struct.std::atomic.0" = type { %"struct.std::__atomic_base.1" }
%"struct.std::__atomic_base.1" = type { i32 }
%"class.grpc_event_engine::experimental::PollPoller::HandlesList" = type { ptr, ptr, ptr }
%"class.absl::lts_20230802::Status" = type { i64 }
%"class.grpc_event_engine::experimental::AnyInvocableClosure" = type { %"class.grpc_event_engine::experimental::EventEngine::Closure", [8 x i8], %"class.absl::lts_20230802::AnyInvocable" }
%"class.grpc_event_engine::experimental::EventEngine::Closure" = type { ptr }

; Function Attrs: mustprogress nounwind uwtable
define linkonce_odr void @_ZN17grpc_event_engine12experimental15PollEventHandle3RefEv(ptr noundef nonnull align 16 dereferenceable(200) %this) #4 comdat align 2 {
entry:
  %this.addr.i = alloca ptr, align 8
  %__i.addr.i = alloca i32, align 4
  %__m.addr.i = alloca i32, align 4
  %.atomictmp.i = alloca i32, align 4
  %atomic-temp.i = alloca i32, align 4
  %this.addr = alloca ptr, align 8
  store ptr %this, ptr %this.addr, align 8
  %this1 = load ptr, ptr %this.addr, align 8
  %ref_count_ = getelementptr inbounds %"class.grpc_event_engine::experimental::PollEventHandle", ptr %this1, i32 0, i32 2
  store ptr %ref_count_, ptr %this.addr.i, align 8
  store i32 1, ptr %__i.addr.i, align 4
  store i32 0, ptr %__m.addr.i, align 4
  %this1.i = load ptr, ptr %this.addr.i, align 8
  %0 = load i32, ptr %__m.addr.i, align 4
  %1 = load i32, ptr %__i.addr.i, align 4
  store i32 %1, ptr %.atomictmp.i, align 4
  switch i32 %0, label %monotonic.i [
    i32 1, label %acquire.i
    i32 2, label %acquire.i
    i32 3, label %release.i
    i32 4, label %acqrel.i
    i32 5, label %seqcst.i
  ]

monotonic.i:                                      ; preds = %entry
  %2 = load i32, ptr %.atomictmp.i, align 4
  %3 = atomicrmw add ptr %this1.i, i32 %2 monotonic, align 4
  store i32 %3, ptr %atomic-temp.i, align 4
  br label %_ZNSt13__atomic_baseIiE9fetch_addEiSt12memory_order.exit

acquire.i:                                        ; preds = %entry, %entry
  %4 = load i32, ptr %.atomictmp.i, align 4
  %5 = atomicrmw add ptr %this1.i, i32 %4 acquire, align 4
  store i32 %5, ptr %atomic-temp.i, align 4
  br label %_ZNSt13__atomic_baseIiE9fetch_addEiSt12memory_order.exit

release.i:                                        ; preds = %entry
  %6 = load i32, ptr %.atomictmp.i, align 4
  %7 = atomicrmw add ptr %this1.i, i32 %6 release, align 4
  store i32 %7, ptr %atomic-temp.i, align 4
  br label %_ZNSt13__atomic_baseIiE9fetch_addEiSt12memory_order.exit

acqrel.i:                                         ; preds = %entry
  %8 = load i32, ptr %.atomictmp.i, align 4
  %9 = atomicrmw add ptr %this1.i, i32 %8 acq_rel, align 4
  store i32 %9, ptr %atomic-temp.i, align 4
  br label %_ZNSt13__atomic_baseIiE9fetch_addEiSt12memory_order.exit

seqcst.i:                                         ; preds = %entry
  %10 = load i32, ptr %.atomictmp.i, align 4
  %11 = atomicrmw add ptr %this1.i, i32 %10 seq_cst, align 4
  store i32 %11, ptr %atomic-temp.i, align 4
  br label %_ZNSt13__atomic_baseIiE9fetch_addEiSt12memory_order.exit

_ZNSt13__atomic_baseIiE9fetch_addEiSt12memory_order.exit: ; preds = %seqcst.i, %acqrel.i, %release.i, %acquire.i, %monotonic.i
  ret void
}

; Function Attrs: mustprogress nounwind uwtable
define linkonce_odr noundef zeroext i1 @_ZN17grpc_event_engine12experimental15PollEventHandle17SetPendingActionsEbb(ptr noundef nonnull align 16 dereferenceable(200) %this, i1 noundef zeroext %pending_read, i1 noundef zeroext %pending_write) #4 comdat align 2 {
entry:
  %retval = alloca i1, align 1
  %this.addr = alloca ptr, align 8
  %pending_read.addr = alloca i8, align 1
  %pending_write.addr = alloca i8, align 1
  store ptr %this, ptr %this.addr, align 8
  %frombool = zext i1 %pending_read to i8
  store i8 %frombool, ptr %pending_read.addr, align 1
  %frombool1 = zext i1 %pending_write to i8
  store i8 %frombool1, ptr %pending_write.addr, align 1
  %this2 = load ptr, ptr %this.addr, align 8
  %0 = load i8, ptr %pending_read.addr, align 1
  %tobool = trunc i8 %0 to i1
  %conv = zext i1 %tobool to i32
  %pending_actions_ = getelementptr inbounds %"class.grpc_event_engine::experimental::PollEventHandle", ptr %this2, i32 0, i32 4
  %1 = load i32, ptr %pending_actions_, align 8
  %or = or i32 %1, %conv
  store i32 %or, ptr %pending_actions_, align 8
  %2 = load i8, ptr %pending_write.addr, align 1
  %tobool3 = trunc i8 %2 to i1
  br i1 %tobool3, label %if.then, label %if.end

if.then:                                          ; preds = %entry
  %pending_actions_4 = getelementptr inbounds %"class.grpc_event_engine::experimental::PollEventHandle", ptr %this2, i32 0, i32 4
  %3 = load i32, ptr %pending_actions_4, align 8
  %or5 = or i32 %3, 4
  store i32 %or5, ptr %pending_actions_4, align 8
  br label %if.end

if.end:                                           ; preds = %if.then, %entry
  %4 = load i8, ptr %pending_read.addr, align 1
  %tobool6 = trunc i8 %4 to i1
  br i1 %tobool6, label %if.then8, label %lor.lhs.false

lor.lhs.false:                                    ; preds = %if.end
  %5 = load i8, ptr %pending_write.addr, align 1
  %tobool7 = trunc i8 %5 to i1
  br i1 %tobool7, label %if.then8, label %if.end9

if.then8:                                         ; preds = %lor.lhs.false, %if.end
  call void @_ZN17grpc_event_engine12experimental15PollEventHandle3RefEv(ptr noundef nonnull align 16 dereferenceable(200) %this2)
  store i1 true, ptr %retval, align 1
  br label %return

if.end9:                                          ; preds = %lor.lhs.false
  store i1 false, ptr %retval, align 1
  br label %return

return:                                           ; preds = %if.end9, %if.then8
  %6 = load i1, ptr %retval, align 1
  ret i1 %6
}

; Function Attrs: mustprogress uwtable
define linkonce_odr void @_ZN17grpc_event_engine12experimental15PollEventHandle7CloseFdEv(ptr noundef nonnull align 16 dereferenceable(200) %this) #5 comdat align 2 {
entry:
  %this.addr = alloca ptr, align 8
  store ptr %this, ptr %this.addr, align 8
  %this1 = load ptr, ptr %this.addr, align 8
  %released_ = getelementptr inbounds %"class.grpc_event_engine::experimental::PollEventHandle", ptr %this1, i32 0, i32 12
  %0 = load i8, ptr %released_, align 1
  %tobool = trunc i8 %0 to i1
  br i1 %tobool, label %if.end, label %land.lhs.true

land.lhs.true:                                    ; preds = %entry
  %closed_ = getelementptr inbounds %"class.grpc_event_engine::experimental::PollEventHandle", ptr %this1, i32 0, i32 11
  %1 = load i8, ptr %closed_, align 2
  %tobool2 = trunc i8 %1 to i1
  br i1 %tobool2, label %if.end, label %if.then

if.then:                                          ; preds = %land.lhs.true
  %closed_3 = getelementptr inbounds %"class.grpc_event_engine::experimental::PollEventHandle", ptr %this1, i32 0, i32 11
  store i8 1, ptr %closed_3, align 2
  %fd_ = getelementptr inbounds %"class.grpc_event_engine::experimental::PollEventHandle", ptr %this1, i32 0, i32 3
  %2 = load i32, ptr %fd_, align 4
  %call = call i32 @close(i32 noundef %2)
  br label %if.end

if.end:                                           ; preds = %if.then, %land.lhs.true, %entry
  ret void
}

; Function Attrs: mustprogress nounwind uwtable
define linkonce_odr noundef zeroext i1 @_ZNK17grpc_event_engine12experimental15PollEventHandle9IsWatchedEv(ptr noundef nonnull align 16 dereferenceable(200) %this) #4 comdat align 2 {
entry:
  %this.addr = alloca ptr, align 8
  store ptr %this, ptr %this.addr, align 8
  %this1 = load ptr, ptr %this.addr, align 8
  %watch_mask_ = getelementptr inbounds %"class.grpc_event_engine::experimental::PollEventHandle", ptr %this1, i32 0, i32 14
  %0 = load i32, ptr %watch_mask_, align 16
  %cmp = icmp ne i32 %0, -1
  ret i1 %cmp
}

; Function Attrs: mustprogress uwtable
define noundef zeroext i1 @_ZN17grpc_event_engine12experimental15PollEventHandle13EndPollLockedEbb(ptr noundef nonnull align 16 dereferenceable(200) %this, i1 noundef zeroext %got_read, i1 noundef zeroext %got_write) #5 align 2 {
entry:
  %retval = alloca i1, align 1
  %this.addr = alloca ptr, align 8
  %got_read.addr = alloca i8, align 1
  %got_write.addr = alloca i8, align 1
  store ptr %this, ptr %this.addr, align 8
  %frombool = zext i1 %got_read to i8
  store i8 %frombool, ptr %got_read.addr, align 1
  %frombool1 = zext i1 %got_write to i8
  store i8 %frombool1, ptr %got_write.addr, align 1
  %this2 = load ptr, ptr %this.addr, align 8
  %is_orphaned_ = getelementptr inbounds %"class.grpc_event_engine::experimental::PollEventHandle", ptr %this2, i32 0, i32 9
  %0 = load i8, ptr %is_orphaned_, align 8
  %tobool = trunc i8 %0 to i1
  br i1 %tobool, label %land.lhs.true, label %if.else

land.lhs.true:                                    ; preds = %entry
  %call = call noundef zeroext i1 @_ZNK17grpc_event_engine12experimental15PollEventHandle9IsWatchedEv(ptr noundef nonnull align 16 dereferenceable(200) %this2)
  br i1 %call, label %if.else, label %if.then

if.then:                                          ; preds = %land.lhs.true
  call void @_ZN17grpc_event_engine12experimental15PollEventHandle7CloseFdEv(ptr noundef nonnull align 16 dereferenceable(200) %this2)
  br label %if.end9

if.else:                                          ; preds = %land.lhs.true, %entry
  %is_orphaned_3 = getelementptr inbounds %"class.grpc_event_engine::experimental::PollEventHandle", ptr %this2, i32 0, i32 9
  %1 = load i8, ptr %is_orphaned_3, align 8
  %tobool4 = trunc i8 %1 to i1
  br i1 %tobool4, label %if.end, label %if.then5

if.then5:                                         ; preds = %if.else
  %2 = load i8, ptr %got_read.addr, align 1
  %tobool6 = trunc i8 %2 to i1
  %3 = load i8, ptr %got_write.addr, align 1
  %tobool7 = trunc i8 %3 to i1
  %call8 = call noundef zeroext i1 @_ZN17grpc_event_engine12experimental15PollEventHandle17SetPendingActionsEbb(ptr noundef nonnull align 16 dereferenceable(200) %this2, i1 noundef zeroext %tobool6, i1 noundef zeroext %tobool7)
  store i1 %call8, ptr %retval, align 1
  br label %return

if.end:                                           ; preds = %if.else
  br label %if.end9

if.end9:                                          ; preds = %if.end, %if.then
  store i1 false, ptr %retval, align 1
  br label %return

return:                                           ; preds = %if.end9, %if.then5
  %4 = load i1, ptr %retval, align 1
  ret i1 %4
}