; Function Attrs: mustprogress uwtable
define noundef zeroext i1 @_ZN17grpc_event_engine12experimental15PollEventHandle13EndPollLockedEbb(ptr nocapture noundef nonnull align 16 dereferenceable(200) %this, i1 noundef zeroext %got_read, i1 noundef zeroext %got_write) local_unnamed_addr #4 align 2 {
entry:
  %is_orphaned_ = getelementptr inbounds i8, ptr %this, i64 104
  %0 = load i8, ptr %is_orphaned_, align 8
  %1 = and i8 %0, 1
  %tobool.not = icmp eq i8 %1, 0
  br i1 %tobool.not, label %if.then5, label %land.lhs.true

land.lhs.true:                                    ; preds = %entry
  %watch_mask_.i = getelementptr inbounds i8, ptr %this, i64 112
  %2 = load i32, ptr %watch_mask_.i, align 16
  %cmp.i.not = icmp eq i32 %2, -1
  br i1 %cmp.i.not, label %if.then, label %return

if.then:                                          ; preds = %land.lhs.true
  %released_.i = getelementptr inbounds i8, ptr %this, i64 107
  %3 = load i8, ptr %released_.i, align 1
  %4 = and i8 %3, 1
  %tobool.not.i = icmp eq i8 %4, 0
  br i1 %tobool.not.i, label %land.lhs.true.i, label %return

land.lhs.true.i:                                  ; preds = %if.then
  %closed_.i = getelementptr inbounds i8, ptr %this, i64 106
  %5 = load i8, ptr %closed_.i, align 2
  %6 = and i8 %5, 1
  %tobool2.not.i = icmp eq i8 %6, 0
  br i1 %tobool2.not.i, label %if.then.i, label %return

if.then.i:                                        ; preds = %land.lhs.true.i
  store i8 1, ptr %closed_.i, align 2
  %fd_.i = getelementptr inbounds i8, ptr %this, i64 20
  %7 = load i32, ptr %fd_.i, align 4
  %call.i = tail call i32 @close(i32 noundef %7)
  br label %return

if.then5:                                         ; preds = %entry
  %conv.i = zext i1 %got_read to i32
  %pending_actions_.i = getelementptr inbounds i8, ptr %this, i64 24
  %8 = load i32, ptr %pending_actions_.i, align 8
  %or.i = or i32 %8, %conv.i
  %or5.i = or i32 %or.i, 4
  %spec.select.i = select i1 %got_write, i32 %or5.i, i32 %or.i
  store i32 %spec.select.i, ptr %pending_actions_.i, align 8
  %brmerge.i = or i1 %got_read, %got_write
  br i1 %brmerge.i, label %if.then8.i, label %return

if.then8.i:                                       ; preds = %if.then5
  %ref_count_.i.i = getelementptr inbounds i8, ptr %this, i64 16
  %9 = atomicrmw add ptr %ref_count_.i.i, i32 1 monotonic, align 4
  br label %return

return:                                           ; preds = %if.then8.i, %if.then5, %land.lhs.true, %if.then.i, %land.lhs.true.i, %if.then
  %retval.0 = phi i1 [ false, %if.then ], [ false, %land.lhs.true.i ], [ false, %if.then.i ], [ false, %land.lhs.true ], [ false, %if.then5 ], [ true, %if.then8.i ]
  ret i1 %retval.0
}